target datalayout = "e-m:e-p270:32:32-p271:32:32-p272:64:64-i64:64-i128:128-f80:128-n8:16:32:64-S128"
target triple = "x86_64-pc-linux-gnu"

@.str.20 = private unnamed_addr constant [10 x i8] c"100001027\00", align 1
@.str.22 = private unnamed_addr constant [43 x i8] c"SECURITY WARNING: MD5 basic test failure.\0A\00", align 1
@.str.23 = private unnamed_addr constant [35 x i8] c"cli_versig: Decoded signature: %s\0A\00", align 1
@.str.24 = private unnamed_addr constant [38 x i8] c"cli_versig: Signature doesn't match.\0A\00", align 1
@.str.25 = private unnamed_addr constant [43 x i8] c"cli_versig: Digital signature is correct.\0A\00", align 1

; Function Attrs: nounwind uwtable
define i32 @cli_versig(ptr noundef %0, ptr noundef %1) #0 {
  %3 = alloca ptr, align 8
  %4 = alloca ptr, align 8
  %5 = alloca ptr, align 8
  %6 = alloca ptr, align 8
  %7 = alloca ptr, align 8
  %8 = alloca ptr, align 8
  %9 = alloca i32, align 4
  store ptr %0, ptr %3, align 8
  store ptr %1, ptr %4, align 8
  store ptr null, ptr %5, align 8
  store ptr null, ptr %6, align 8
  store ptr null, ptr %7, align 8
  store ptr null, ptr %8, align 8
  store i32 20, ptr %9, align 4
  %10 = call ptr @BN_new()
  store ptr %10, ptr %5, align 8
  %11 = load ptr, ptr %5, align 8
  %12 = icmp ne ptr %11, null
  br i1 %12, label %14, label %13

13:                                               ; preds = %2
  br label %62

14:                                               ; preds = %2
  %15 = call ptr @BN_new()
  store ptr %15, ptr %6, align 8
  %16 = load ptr, ptr %6, align 8
  %17 = icmp ne ptr %16, null
  br i1 %17, label %19, label %18

18:                                               ; preds = %14
  br label %62

19:                                               ; preds = %14
  store i32 6, ptr %9, align 4
  %20 = call i32 @BN_dec2bn(ptr noundef %6, ptr noundef @.str.20)
  %21 = icmp ne i32 %20, 0
  br i1 %21, label %23, label %22

22:                                               ; preds = %19
  br label %62

23:                                               ; preds = %19
  %24 = call i32 @BN_dec2bn(ptr noundef %5, ptr noundef @.str.21)
  %25 = icmp ne i32 %24, 0
  br i1 %25, label %27, label %26

26:                                               ; preds = %23
  br label %62

27:                                               ; preds = %23
  %28 = load ptr, ptr %3, align 8
  %29 = call i64 @strlen(ptr noundef %28) #10
  %30 = icmp ne i64 %29, 32
  br i1 %30, label %44, label %31

31:                                               ; preds = %27
  %32 = call ptr @__ctype_b_loc() #9
  %33 = load ptr, ptr %32, align 8
  %34 = load ptr, ptr %3, align 8
  %35 = getelementptr inbounds i8, ptr %34, i64 0
  %36 = load i8, ptr %35, align 1
  %37 = sext i8 %36 to i32
  %38 = sext i32 %37 to i64
  %39 = getelementptr inbounds i16, ptr %33, i64 %38
  %40 = load i16, ptr %39, align 2
  %41 = zext i16 %40 to i32
  %42 = and i32 %41, 8
  %43 = icmp ne i32 %42, 0
  br i1 %43, label %45, label %44

44:                                               ; preds = %31, %27
  call void (ptr, ...) @cli_errmsg(ptr noundef @.str.22)
  br label %62

45:                                               ; preds = %31
  %46 = load ptr, ptr %4, align 8
  %47 = load ptr, ptr %6, align 8
  %48 = load ptr, ptr %5, align 8
  %49 = call ptr @cli_decodesig(ptr noundef %46, i32 noundef 16, ptr noundef %47, ptr noundef %48)
  store ptr %49, ptr %7, align 8
  %50 = icmp ne ptr %49, null
  br i1 %50, label %52, label %51

51:                                               ; preds = %45
  br label %62

52:                                               ; preds = %45
  %53 = load ptr, ptr %7, align 8
  %54 = call ptr @cli_str2hex(ptr noundef %53, i32 noundef 16)
  store ptr %54, ptr %8, align 8
  %55 = load ptr, ptr %8, align 8
  call void (ptr, ...) @cli_dbgmsg(ptr noundef @.str.23, ptr noundef %55)
  %56 = load ptr, ptr %3, align 8
  %57 = load ptr, ptr %8, align 8
  %58 = call i32 @strncmp(ptr noundef %56, ptr noundef %57, i64 noundef 32) #10
  %59 = icmp ne i32 %58, 0
  br i1 %59, label %60, label %61

60:                                               ; preds = %52
  call void (ptr, ...) @cli_dbgmsg(ptr noundef @.str.24)
  br label %62

61:                                               ; preds = %52
  call void (ptr, ...) @cli_dbgmsg(ptr noundef @.str.25)
  store i32 0, ptr %9, align 4
  br label %62

62:                                               ; preds = %61, %60, %51, %44, %26, %22, %18, %13
  %63 = load ptr, ptr %7, align 8
  call void @free(ptr noundef %63) #8
  %64 = load ptr, ptr %8, align 8
  call void @free(ptr noundef %64) #8
  %65 = load ptr, ptr %5, align 8
  call void @BN_free(ptr noundef %65)
  %66 = load ptr, ptr %6, align 8
  call void @BN_free(ptr noundef %66)
  %67 = load i32, ptr %9, align 4
  ret i32 %67
}