; Function Attrs: nounwind uwtable
define noundef i32 @cli_versig(ptr nocapture noundef readonly %0, ptr nocapture noundef readonly %1) local_unnamed_addr #0 {
  %3 = alloca ptr, align 8
  %4 = alloca ptr, align 8
  store ptr null, ptr %4, align 8
  %5 = tail call ptr @BN_new() #14
  store ptr %5, ptr %3, align 8
  %.not = icmp eq ptr %5, null
  br i1 %.not, label %32, label %6

6:                                                ; preds = %2
  %7 = tail call ptr @BN_new() #14
  store ptr %7, ptr %4, align 8
  %.not12 = icmp eq ptr %7, null
  br i1 %.not12, label %32, label %8

8:                                                ; preds = %6
  %9 = call i32 @BN_dec2bn(ptr noundef nonnull %4, ptr noundef nonnull @.str.20) #14
  %.not13 = icmp eq i32 %9, 0
  br i1 %.not13, label %32, label %10

10:                                               ; preds = %8
  %11 = call i32 @BN_dec2bn(ptr noundef nonnull %3, ptr noundef nonnull @.str.21) #14
  %.not14 = icmp eq i32 %11, 0
  br i1 %.not14, label %32, label %12

12:                                               ; preds = %10
  %13 = call i64 @strlen(ptr noundef nonnull dereferenceable(1) %0) #17
  %.not15 = icmp eq i64 %13, 32
  br i1 %.not15, label %14, label %22

14:                                               ; preds = %12
  %15 = tail call ptr @__ctype_b_loc() #16
  %16 = load ptr, ptr %15, align 8
  %17 = load i8, ptr %0, align 1
  %18 = sext i8 %17 to i64
  %19 = getelementptr inbounds i16, ptr %16, i64 %18
  %20 = load i16, ptr %19, align 2
  %21 = and i16 %20, 8
  %.not16 = icmp eq i16 %21, 0
  br i1 %.not16, label %22, label %23

22:                                               ; preds = %14, %12
  call void (ptr, ...) @cli_errmsg(ptr noundef nonnull @.str.22) #14
  br label %32

23:                                               ; preds = %14
  %24 = load ptr, ptr %4, align 8
  %25 = load ptr, ptr %3, align 8
  %26 = call fastcc ptr @cli_decodesig(ptr noundef %1, i32 noundef 16, ptr noundef %24, ptr noundef %25)
  %.not17 = icmp eq ptr %26, null
  br i1 %.not17, label %32, label %27

27:                                               ; preds = %23
  %28 = call ptr @cli_str2hex(ptr noundef nonnull %26, i32 noundef 16) #14
  call void (ptr, ...) @cli_dbgmsg(ptr noundef nonnull @.str.23, ptr noundef %28) #14
  %29 = call i32 @strncmp(ptr noundef nonnull dereferenceable(1) %0, ptr noundef nonnull dereferenceable(1) %28, i64 noundef 32) #17
  %.not18 = icmp eq i32 %29, 0
  br i1 %.not18, label %31, label %30

30:                                               ; preds = %27
  call void (ptr, ...) @cli_dbgmsg(ptr noundef nonnull @.str.24) #14
  br label %32

31:                                               ; preds = %27
  call void (ptr, ...) @cli_dbgmsg(ptr noundef nonnull @.str.25) #14
  br label %32

32:                                               ; preds = %23, %10, %8, %6, %2, %31, %30, %22
  %.010 = phi ptr [ null, %22 ], [ %26, %30 ], [ %26, %31 ], [ null, %23 ], [ null, %10 ], [ null, %8 ], [ null, %6 ], [ null, %2 ]
  %.09 = phi ptr [ null, %22 ], [ %28, %30 ], [ %28, %31 ], [ null, %23 ], [ null, %10 ], [ null, %8 ], [ null, %6 ], [ null, %2 ]
  %.0 = phi i32 [ 6, %22 ], [ 6, %30 ], [ 0, %31 ], [ 6, %23 ], [ 6, %10 ], [ 6, %8 ], [ 20, %6 ], [ 20, %2 ]
  call void @free(ptr noundef %.010) #14
  call void @free(ptr noundef %.09) #14
  %33 = load ptr, ptr %3, align 8
  call void @BN_free(ptr noundef %33) #14
  %34 = load ptr, ptr %4, align 8
  call void @BN_free(ptr noundef %34) #14
  ret i32 %.0
}